; Function Attrs: mustprogress nounwind uwtable
define hidden void @_ZN11PSCardTable19scan_obj_with_limitEP18PSPromotionManagerP7oopDescPP12HeapWordImplS6_(ptr nocapture noundef nonnull readnone align 8 dereferenceable(92) %0, ptr noundef %1, ptr noundef %2, ptr noundef %3, ptr noundef %4) local_unnamed_addr #0 align 2 {
  %6 = alloca %class.PSPushContentsClosure, align 8
  %7 = load i8, ptr @UseCompressedClassPointers, align 1
  %8 = trunc i8 %7 to i1
  %9 = getelementptr inbounds i8, ptr %2, i64 8
  br i1 %8, label %10, label %20

10:                                               ; preds = %5
  %11 = load i32, ptr %9, align 8
  %12 = load ptr, ptr @_ZN23CompressedKlassPointers5_baseE, align 8
  %13 = load i32, ptr @_ZN23CompressedKlassPointers6_shiftE, align 4
  %14 = ptrtoint ptr %12 to i64
  %15 = zext i32 %11 to i64
  %16 = zext nneg i32 %13 to i64
  %17 = shl i64 %15, %16
  %18 = add i64 %17, %14
  %19 = inttoptr i64 %18 to ptr
  br label %_ZNK7oopDesc12is_typeArrayEv.exit

20:                                               ; preds = %5
  %21 = load ptr, ptr %9, align 8
  br label %_ZNK7oopDesc12is_typeArrayEv.exit

_ZNK7oopDesc12is_typeArrayEv.exit:                ; preds = %10, %20
  %.0.i.i = phi ptr [ %19, %10 ], [ %21, %20 ]
  %22 = getelementptr inbounds i8, ptr %.0.i.i, i64 12
  %23 = load i32, ptr %22, align 4
  %24 = icmp eq i32 %23, 5
  br i1 %24, label %55, label %25

25:                                               ; preds = %_ZNK7oopDesc12is_typeArrayEv.exit
  %26 = load i64, ptr @PrefetchScanIntervalInBytes, align 8
  %27 = icmp sgt i64 %26, -1
  br i1 %27, label %28, label %_ZL14prefetch_writePv.exit

28:                                               ; preds = %25
  tail call void asm sideeffect "prefetcht0 ($0,$1,1)", "r,r,~{dirflag},~{fpsr},~{flags}"(ptr %3, i64 %26) #11, !srcloc !6
  %.pre = load i8, ptr @UseCompressedClassPointers, align 1
  br label %_ZL14prefetch_writePv.exit

_ZL14prefetch_writePv.exit:                       ; preds = %25, %28
  %29 = phi i8 [ %7, %25 ], [ %.pre, %28 ]
  call void @llvm.lifetime.start.p0(i64 24, ptr nonnull %6)
  %30 = load ptr, ptr @_ZN10PSScavenge14_ref_processorE, align 8
  %31 = getelementptr inbounds i8, ptr %6, i64 8
  store ptr %30, ptr %31, align 8
  store ptr getelementptr inbounds inrange(-16, 64) (i8, ptr @_ZTV21PSPushContentsClosure, i64 16), ptr %6, align 8
  %32 = getelementptr inbounds i8, ptr %6, i64 16
  store ptr %1, ptr %32, align 8
  %33 = trunc i8 %29 to i1
  br i1 %33, label %34, label %44

34:                                               ; preds = %_ZL14prefetch_writePv.exit
  %35 = load i32, ptr %9, align 8
  %36 = load ptr, ptr @_ZN23CompressedKlassPointers5_baseE, align 8
  %37 = load i32, ptr @_ZN23CompressedKlassPointers6_shiftE, align 4
  %38 = ptrtoint ptr %36 to i64
  %39 = zext i32 %35 to i64
  %40 = zext nneg i32 %37 to i64
  %41 = shl i64 %39, %40
  %42 = add i64 %41, %38
  %43 = inttoptr i64 %42 to ptr
  br label %_ZN18PSPromotionManager21push_contents_boundedEP7oopDescPP12HeapWordImplS4_.exit

44:                                               ; preds = %_ZL14prefetch_writePv.exit
  %45 = load ptr, ptr %9, align 8
  br label %_ZN18PSPromotionManager21push_contents_boundedEP7oopDescPP12HeapWordImplS4_.exit

_ZN18PSPromotionManager21push_contents_boundedEP7oopDescPP12HeapWordImplS4_.exit: ; preds = %34, %44
  %.0.i.i.i = phi ptr [ %43, %34 ], [ %45, %44 ]
  %46 = ptrtoint ptr %4 to i64
  %47 = ptrtoint ptr %3 to i64
  %48 = sub i64 %46, %47
  %49 = lshr i64 %48, 3
  %50 = getelementptr inbounds i8, ptr %.0.i.i.i, i64 12
  %51 = load i32, ptr %50, align 4
  %52 = sext i32 %51 to i64
  %53 = getelementptr inbounds [7 x ptr], ptr @_ZN28OopOopIterateBoundedDispatchI21PSPushContentsClosureE6_tableE, i64 0, i64 %52
  %54 = load ptr, ptr %53, align 8
  call void %54(ptr noundef nonnull %6, ptr noundef nonnull %2, ptr noundef %.0.i.i.i, ptr %3, i64 %49) #11
  call void @llvm.lifetime.end.p0(i64 24, ptr nonnull %6)
  br label %55

55:                                               ; preds = %_ZN18PSPromotionManager21push_contents_boundedEP7oopDescPP12HeapWordImplS4_.exit, %_ZNK7oopDesc12is_typeArrayEv.exit
  ret void
}